target datalayout = "e-m:e-p270:32:32-p271:32:32-p272:64:64-i64:64-i128:128-f80:128-n8:16:32:64-S128"
target triple = "x86_64-pc-linux-gnu"

%class.anon.693 = type { i8 }

@_ZZL21DOCTEST_ANON_FUNC_118vE5index = internal global i32 0, align 4
@.str.458 = private unnamed_addr constant [8 x i8] c"timeout\00", align 1

; Function Attrs: mustprogress uwtable
define internal void @"_ZZL21DOCTEST_ANON_FUNC_118vENK3$_2clEP9lua_Statei"(ptr noundef nonnull align 1 dereferenceable(1) %0, ptr noundef %1, i32 noundef %2) #4 align 2 {
  %4 = alloca ptr, align 8
  %5 = alloca ptr, align 8
  %6 = alloca i32, align 4
  store ptr %0, ptr %4, align 8
  store ptr %1, ptr %5, align 8
  store i32 %2, ptr %6, align 4
  %7 = load i32, ptr %6, align 4
  %8 = icmp sge i32 %7, 0
  br i1 %8, label %9, label %10

9:                                                ; preds = %3
  br label %17

10:                                               ; preds = %3
  %11 = load i32, ptr @_ZZL21DOCTEST_ANON_FUNC_118vE5index, align 4
  %12 = add nsw i32 %11, 1
  store i32 %12, ptr @_ZZL21DOCTEST_ANON_FUNC_118vE5index, align 4
  %13 = load i32, ptr @_ZZL21DOCTEST_ANON_FUNC_118vE5index, align 4
  %14 = icmp eq i32 %13, 1000
  br i1 %14, label %15, label %17

15:                                               ; preds = %10
  store i32 0, ptr @_ZZL21DOCTEST_ANON_FUNC_118vE5index, align 4
  %16 = load ptr, ptr %5, align 8
  call void (ptr, ptr, ...) @_Z11luaL_errorLP9lua_StatePKcz(ptr noundef %16, ptr noundef @.str.458) #19
  unreachable

17:                                               ; preds = %10, %9
  ret void
}

; Function Attrs: mustprogress uwtable
define internal void @"_ZZL21DOCTEST_ANON_FUNC_118vEN3$_28__invokeEP9lua_Statei"(ptr noundef %0, i32 noundef %1) #4 align 2 {
  %3 = alloca ptr, align 8
  %4 = alloca i32, align 4
  %5 = alloca %class.anon.693, align 1
  store ptr %0, ptr %3, align 8
  store i32 %1, ptr %4, align 4
  %6 = load ptr, ptr %3, align 8
  %7 = load i32, ptr %4, align 4
  call void @"_ZZL21DOCTEST_ANON_FUNC_118vENK3$_2clEP9lua_Statei"(ptr noundef nonnull align 1 dereferenceable(1) %5, ptr noundef %6, i32 noundef %7)
  ret void
}