; Function Attrs: mustprogress uwtable
define internal void @"_ZZL21DOCTEST_ANON_FUNC_118vEN3$_28__invokeEP9lua_Statei"(ptr noundef %0, i32 noundef %1) #4 align 2 {
  %3 = icmp sgt i32 %1, -1
  br i1 %3, label %"_ZZL21DOCTEST_ANON_FUNC_118vENK3$_2clEP9lua_Statei.exit", label %4

4:                                                ; preds = %2
  %5 = load i32, ptr @_ZZL21DOCTEST_ANON_FUNC_118vE5index, align 4
  %6 = add nsw i32 %5, 1
  store i32 %6, ptr @_ZZL21DOCTEST_ANON_FUNC_118vE5index, align 4
  %7 = icmp eq i32 %6, 1000
  br i1 %7, label %8, label %"_ZZL21DOCTEST_ANON_FUNC_118vENK3$_2clEP9lua_Statei.exit"

8:                                                ; preds = %4
  store i32 0, ptr @_ZZL21DOCTEST_ANON_FUNC_118vE5index, align 4
  tail call void (ptr, ptr, ...) @_Z11luaL_errorLP9lua_StatePKcz(ptr noundef %0, ptr noundef nonnull @.str.458) #34
  unreachable

"_ZZL21DOCTEST_ANON_FUNC_118vENK3$_2clEP9lua_Statei.exit": ; preds = %2, %4
  ret void
}